; Function Attrs: inlinehint mustprogress nofree norecurse nosync nounwind willreturn memory(none) uwtable
define internal noundef zeroext i1 @_ZN14V3RttiInternalL16isClassIdOfOneOfI11SplitRVEdgeJ9SplitEdge11V3GraphEdgeEEEbm9VTypeListIJT_DpT0_EE(i64 noundef %0) #17 {
  %2 = icmp eq i64 %0, ptrtoint (ptr @_ZZN11SplitRVEdge11rttiClassIdEvE15aStaticVariable to i64)
  br i1 %2, label %6, label %3

3:                                                ; preds = %1
  %4 = icmp eq i64 %0, ptrtoint (ptr @_ZZN9SplitEdge11rttiClassIdEvE15aStaticVariable to i64)
  %5 = icmp eq i64 %0, ptrtoint (ptr @_ZZN11V3GraphEdge11rttiClassIdEvE15aStaticVariable to i64)
  %spec.select.i = or i1 %4, %5
  br label %6

6:                                                ; preds = %3, %1
  %7 = phi i1 [ true, %1 ], [ %spec.select.i, %3 ]
  ret i1 %7
}